; Function Attrs: nounwind uwtable
define zeroext range(i8 0, 2) i8 @l_Lean_Elab_isAbortExceptionId(ptr noundef %0) local_unnamed_addr #0 {
  %2 = load ptr, ptr @l_Lean_Elab_throwAbortCommand___rarg___closed__1, align 8, !tbaa !4
  %3 = ptrtoint ptr %0 to i64
  %4 = and i64 %3, 1
  %5 = icmp ne i64 %4, 0
  %6 = ptrtoint ptr %2 to i64
  %7 = and i64 %6, 1
  %8 = icmp ne i64 %7, 0
  %or.cond = select i1 %5, i1 %8, i1 false
  br i1 %or.cond, label %lean_nat_eq.exit.thread, label %lean_nat_eq.exit, !prof !14

lean_nat_eq.exit:                                 ; preds = %1
  %9 = tail call zeroext i1 @lean_nat_big_eq(ptr noundef %0, ptr noundef %2) #3
  br i1 %9, label %32, label %11

lean_nat_eq.exit.thread:                          ; preds = %1
  %.not = icmp eq ptr %0, %2
  br i1 %.not, label %32, label %.thread

.thread:                                          ; preds = %lean_nat_eq.exit.thread
  %10 = load ptr, ptr @l_Lean_Elab_throwAbortTerm___rarg___closed__1, align 8, !tbaa !4
  br label %13

11:                                               ; preds = %lean_nat_eq.exit
  %12 = load ptr, ptr @l_Lean_Elab_throwAbortTerm___rarg___closed__1, align 8, !tbaa !4
  br i1 %5, label %13, label %lean_nat_eq.exit13.thread25, !prof !15

13:                                               ; preds = %.thread, %11
  %14 = phi ptr [ %10, %.thread ], [ %12, %11 ]
  %15 = ptrtoint ptr %14 to i64
  %16 = and i64 %15, 1
  %.not22 = icmp eq i64 %16, 0
  br i1 %.not22, label %lean_nat_eq.exit13, label %lean_nat_eq.exit13.thread, !prof !16

lean_nat_eq.exit13:                               ; preds = %13
  %17 = tail call zeroext i1 @lean_nat_big_eq(ptr noundef %0, ptr noundef %14) #3
  br i1 %17, label %32, label %21

lean_nat_eq.exit13.thread25:                      ; preds = %11
  %18 = tail call zeroext i1 @lean_nat_big_eq(ptr noundef %0, ptr noundef %12) #3
  br i1 %18, label %32, label %.thread26

.thread26:                                        ; preds = %lean_nat_eq.exit13.thread25
  %19 = load ptr, ptr @l_Lean_Elab_throwAbortTactic___rarg___closed__1, align 8, !tbaa !4
  br label %.critedge.i14

lean_nat_eq.exit13.thread:                        ; preds = %13
  %.not23 = icmp eq ptr %0, %14
  br i1 %.not23, label %32, label %.thread19

.thread19:                                        ; preds = %lean_nat_eq.exit13.thread
  %20 = load ptr, ptr @l_Lean_Elab_throwAbortTactic___rarg___closed__1, align 8, !tbaa !4
  br label %23

21:                                               ; preds = %lean_nat_eq.exit13
  %22 = load ptr, ptr @l_Lean_Elab_throwAbortTactic___rarg___closed__1, align 8, !tbaa !4
  br i1 %5, label %23, label %.critedge.i14, !prof !17

23:                                               ; preds = %.thread19, %21
  %24 = phi ptr [ %20, %.thread19 ], [ %22, %21 ]
  %25 = ptrtoint ptr %24 to i64
  %26 = and i64 %25, 1
  %.not24 = icmp eq i64 %26, 0
  br i1 %.not24, label %.critedge.i14, label %27, !prof !16

27:                                               ; preds = %23
  %28 = icmp eq ptr %0, %24
  br label %lean_nat_eq.exit16

.critedge.i14:                                    ; preds = %.thread26, %23, %21
  %29 = phi ptr [ %24, %23 ], [ %22, %21 ], [ %19, %.thread26 ]
  %30 = tail call zeroext i1 @lean_nat_big_eq(ptr noundef %0, ptr noundef %29) #3
  br label %lean_nat_eq.exit16

lean_nat_eq.exit16:                               ; preds = %27, %.critedge.i14
  %.0.i15 = phi i1 [ %28, %27 ], [ %30, %.critedge.i14 ]
  %31 = zext i1 %.0.i15 to i8
  br label %32

32:                                               ; preds = %lean_nat_eq.exit13.thread25, %lean_nat_eq.exit13.thread, %lean_nat_eq.exit.thread, %lean_nat_eq.exit, %lean_nat_eq.exit16, %lean_nat_eq.exit13
  %.1 = phi i8 [ %31, %lean_nat_eq.exit16 ], [ 1, %lean_nat_eq.exit13 ], [ 1, %lean_nat_eq.exit ], [ 1, %lean_nat_eq.exit.thread ], [ 1, %lean_nat_eq.exit13.thread ], [ 1, %lean_nat_eq.exit13.thread25 ]
  ret i8 %.1
}